target datalayout = "e-m:e-p270:32:32-p271:32:32-p272:64:64-i64:64-i128:128-f80:128-n8:16:32:64-S128"
target triple = "x86_64-pc-linux-gnu"

%struct.SwsInternal = type { %struct.SwsContext, ptr, ptr, ptr, ptr, i32, [2 x ptr], i32, i32, ptr, i32, i32, i32, i32, i32, i32, i32, i32, i32, i32, i32, i32, i32, i32, i32, i32, i32, i32, ptr, ptr, %struct.RangeList, [3 x ptr], [2 x [4 x i32]], [2 x [4 x ptr]], i32, double, i32, ptr, ptr, i32, [2 x i32], i32, ptr, ptr, [256 x i32], [256 x i32], [256 x float], i32, i32, ptr, i32, ptr, ptr, ptr, ptr, ptr, ptr, ptr, ptr, i32, i32, i32, i32, i32, i32, ptr, ptr, i32, i32, i32, ptr, [8 x i8], [1280 x i32], [1280 x ptr], [1280 x ptr], [1280 x ptr], [176 x i32], [4 x ptr], i32, i32, i32, [4 x i32], [4 x i32], i32, i32, i32, i32, i32, i32, i32, i32, i32, i32, i64, i64, i64, i64, i64, i64, i64, i64, i64, i64, i64, [1024 x i32], [1024 x i32], i32, i64, i64, i64, i64, i64, [1024 x i32], i64, i64, [8 x i16], [8 x i32], ptr, ptr, i32, ptr, ptr, ptr, ptr, [3 x [4 x i16]], [3 x [4 x i16]], ptr, ptr, ptr, ptr, ptr, ptr, ptr, ptr, ptr, ptr, ptr, ptr, ptr, ptr, ptr, ptr, ptr, ptr, ptr, ptr, i32, i32, i64, i64, i32, ptr, i32, ptr, i32, i32, i32, i32, i32, ptr }
%struct.SwsContext = type { ptr, ptr, i32, [2 x double], i32, i32, i32, i32, i32, i32, i32, i32, i32, i32, i32, i32, i32, i32, i32, i32, i32 }
%struct.RangeList = type { ptr, i32, i32 }

@.str.1 = private unnamed_addr constant [30 x i8] c"Assertion %s failed at %s:%d\0A\00", align 1
@.str.3 = private unnamed_addr constant [30 x i8] c"libswscale/swscale_unscaled.c\00", align 1
@.str.13 = private unnamed_addr constant [14 x i8] c"srcSliceH > 1\00", align 1

; Function Attrs: nounwind uwtable
define internal i32 @bayer_to_rgb24_wrapper(ptr noundef %0, ptr noundef %1, ptr noundef %2, i32 noundef %3, i32 noundef %4, ptr noundef %5, ptr noundef %6) #0 {
  %8 = alloca i32, align 4
  %9 = alloca ptr, align 8
  %10 = alloca ptr, align 8
  %11 = alloca ptr, align 8
  %12 = alloca i32, align 4
  %13 = alloca i32, align 4
  %14 = alloca ptr, align 8
  %15 = alloca ptr, align 8
  %16 = alloca ptr, align 8
  %17 = alloca ptr, align 8
  %18 = alloca i32, align 4
  %19 = alloca ptr, align 8
  %20 = alloca ptr, align 8
  %21 = alloca i32, align 4
  store ptr %0, ptr %9, align 8, !tbaa !13
  store ptr %1, ptr %10, align 8, !tbaa !52
  store ptr %2, ptr %11, align 8, !tbaa !54
  store i32 %3, ptr %12, align 4, !tbaa !9
  store i32 %4, ptr %13, align 4, !tbaa !9
  store ptr %5, ptr %14, align 8, !tbaa !52
  store ptr %6, ptr %15, align 8, !tbaa !54
  call void @llvm.lifetime.start.p0(i64 8, ptr %16) #11
  %22 = load ptr, ptr %14, align 8, !tbaa !52
  %23 = getelementptr inbounds ptr, ptr %22, i64 0
  %24 = load ptr, ptr %23, align 8, !tbaa !4
  %25 = load i32, ptr %12, align 4, !tbaa !9
  %26 = load ptr, ptr %15, align 8, !tbaa !54
  %27 = getelementptr inbounds i32, ptr %26, i64 0
  %28 = load i32, ptr %27, align 4, !tbaa !9
  %29 = mul nsw i32 %25, %28
  %30 = sext i32 %29 to i64
  %31 = getelementptr inbounds i8, ptr %24, i64 %30
  store ptr %31, ptr %16, align 8, !tbaa !4
  call void @llvm.lifetime.start.p0(i64 8, ptr %17) #11
  %32 = load ptr, ptr %10, align 8, !tbaa !52
  %33 = getelementptr inbounds ptr, ptr %32, i64 0
  %34 = load ptr, ptr %33, align 8, !tbaa !4
  store ptr %34, ptr %17, align 8, !tbaa !4
  call void @llvm.lifetime.start.p0(i64 4, ptr %18) #11
  call void @llvm.lifetime.start.p0(i64 8, ptr %19) #11
  call void @llvm.lifetime.start.p0(i64 8, ptr %20) #11
  %35 = load ptr, ptr %9, align 8, !tbaa !13
  %36 = getelementptr inbounds nuw %struct.SwsInternal, ptr %35, i32 0, i32 0
  %37 = getelementptr inbounds nuw %struct.SwsContext, ptr %36, i32 0, i32 12
  %38 = load i32, ptr %37, align 8, !tbaa !15
  switch i32 %38, label %51 [
    i32 139, label %39
    i32 143, label %40
    i32 144, label %41
    i32 140, label %42
    i32 145, label %43
    i32 146, label %44
    i32 141, label %45
    i32 147, label %46
    i32 148, label %47
    i32 142, label %48
    i32 149, label %49
    i32 150, label %50
  ]

39:                                               ; preds = %7
  store ptr @bayer_bggr8_to_rgb24_copy, ptr %19, align 8, !tbaa !56
  store ptr @bayer_bggr8_to_rgb24_interpolate, ptr %20, align 8, !tbaa !56
  br label %52

40:                                               ; preds = %7
  store ptr @bayer_bggr16le_to_rgb24_copy, ptr %19, align 8, !tbaa !56
  store ptr @bayer_bggr16le_to_rgb24_interpolate, ptr %20, align 8, !tbaa !56
  br label %52

41:                                               ; preds = %7
  store ptr @bayer_bggr16be_to_rgb24_copy, ptr %19, align 8, !tbaa !56
  store ptr @bayer_bggr16be_to_rgb24_interpolate, ptr %20, align 8, !tbaa !56
  br label %52

42:                                               ; preds = %7
  store ptr @bayer_rggb8_to_rgb24_copy, ptr %19, align 8, !tbaa !56
  store ptr @bayer_rggb8_to_rgb24_interpolate, ptr %20, align 8, !tbaa !56
  br label %52

43:                                               ; preds = %7
  store ptr @bayer_rggb16le_to_rgb24_copy, ptr %19, align 8, !tbaa !56
  store ptr @bayer_rggb16le_to_rgb24_interpolate, ptr %20, align 8, !tbaa !56
  br label %52

44:                                               ; preds = %7
  store ptr @bayer_rggb16be_to_rgb24_copy, ptr %19, align 8, !tbaa !56
  store ptr @bayer_rggb16be_to_rgb24_interpolate, ptr %20, align 8, !tbaa !56
  br label %52

45:                                               ; preds = %7
  store ptr @bayer_gbrg8_to_rgb24_copy, ptr %19, align 8, !tbaa !56
  store ptr @bayer_gbrg8_to_rgb24_interpolate, ptr %20, align 8, !tbaa !56
  br label %52

46:                                               ; preds = %7
  store ptr @bayer_gbrg16le_to_rgb24_copy, ptr %19, align 8, !tbaa !56
  store ptr @bayer_gbrg16le_to_rgb24_interpolate, ptr %20, align 8, !tbaa !56
  br label %52

47:                                               ; preds = %7
  store ptr @bayer_gbrg16be_to_rgb24_copy, ptr %19, align 8, !tbaa !56
  store ptr @bayer_gbrg16be_to_rgb24_interpolate, ptr %20, align 8, !tbaa !56
  br label %52

48:                                               ; preds = %7
  store ptr @bayer_grbg8_to_rgb24_copy, ptr %19, align 8, !tbaa !56
  store ptr @bayer_grbg8_to_rgb24_interpolate, ptr %20, align 8, !tbaa !56
  br label %52

49:                                               ; preds = %7
  store ptr @bayer_grbg16le_to_rgb24_copy, ptr %19, align 8, !tbaa !56
  store ptr @bayer_grbg16le_to_rgb24_interpolate, ptr %20, align 8, !tbaa !56
  br label %52

50:                                               ; preds = %7
  store ptr @bayer_grbg16be_to_rgb24_copy, ptr %19, align 8, !tbaa !56
  store ptr @bayer_grbg16be_to_rgb24_interpolate, ptr %20, align 8, !tbaa !56
  br label %52

51:                                               ; preds = %7
  store i32 0, ptr %8, align 4
  store i32 1, ptr %21, align 4
  br label %165

52:                                               ; preds = %50, %49, %48, %47, %46, %45, %44, %43, %42, %41, %40, %39
  br label %53

53:                                               ; preds = %52
  %54 = load i32, ptr %13, align 4, !tbaa !9
  %55 = icmp sgt i32 %54, 1
  br i1 %55, label %57, label %56

56:                                               ; preds = %53
  call void (ptr, i32, ptr, ...) @av_log(ptr noundef null, i32 noundef 0, ptr noundef @.str.1, ptr noundef @.str.13, ptr noundef @.str.3, i32 noundef 1661)
  call void @abort() #12
  unreachable

57:                                               ; preds = %53
  br label %58

58:                                               ; preds = %57
  br label %59

59:                                               ; preds = %58
  %60 = load ptr, ptr %19, align 8, !tbaa !56
  %61 = load ptr, ptr %17, align 8, !tbaa !4
  %62 = load ptr, ptr %11, align 8, !tbaa !54
  %63 = getelementptr inbounds i32, ptr %62, i64 0
  %64 = load i32, ptr %63, align 4, !tbaa !9
  %65 = load ptr, ptr %16, align 8, !tbaa !4
  %66 = load ptr, ptr %15, align 8, !tbaa !54
  %67 = getelementptr inbounds i32, ptr %66, i64 0
  %68 = load i32, ptr %67, align 4, !tbaa !9
  %69 = load ptr, ptr %9, align 8, !tbaa !13
  %70 = getelementptr inbounds nuw %struct.SwsInternal, ptr %69, i32 0, i32 0
  %71 = getelementptr inbounds nuw %struct.SwsContext, ptr %70, i32 0, i32 8
  %72 = load i32, ptr %71, align 8, !tbaa !55
  call void %60(ptr noundef %61, i32 noundef %64, ptr noundef %65, i32 noundef %68, i32 noundef %72)
  %73 = load ptr, ptr %11, align 8, !tbaa !54
  %74 = getelementptr inbounds i32, ptr %73, i64 0
  %75 = load i32, ptr %74, align 4, !tbaa !9
  %76 = mul nsw i32 2, %75
  %77 = load ptr, ptr %17, align 8, !tbaa !4
  %78 = sext i32 %76 to i64
  %79 = getelementptr inbounds i8, ptr %77, i64 %78
  store ptr %79, ptr %17, align 8, !tbaa !4
  %80 = load ptr, ptr %15, align 8, !tbaa !54
  %81 = getelementptr inbounds i32, ptr %80, i64 0
  %82 = load i32, ptr %81, align 4, !tbaa !9
  %83 = mul nsw i32 2, %82
  %84 = load ptr, ptr %16, align 8, !tbaa !4
  %85 = sext i32 %83 to i64
  %86 = getelementptr inbounds i8, ptr %84, i64 %85
  store ptr %86, ptr %16, align 8, !tbaa !4
  store i32 2, ptr %18, align 4, !tbaa !9
  br label %87

87:                                               ; preds = %120, %59
  %88 = load i32, ptr %18, align 4, !tbaa !9
  %89 = load i32, ptr %13, align 4, !tbaa !9
  %90 = sub nsw i32 %89, 2
  %91 = icmp slt i32 %88, %90
  br i1 %91, label %92, label %123

92:                                               ; preds = %87
  %93 = load ptr, ptr %20, align 8, !tbaa !56
  %94 = load ptr, ptr %17, align 8, !tbaa !4
  %95 = load ptr, ptr %11, align 8, !tbaa !54
  %96 = getelementptr inbounds i32, ptr %95, i64 0
  %97 = load i32, ptr %96, align 4, !tbaa !9
  %98 = load ptr, ptr %16, align 8, !tbaa !4
  %99 = load ptr, ptr %15, align 8, !tbaa !54
  %100 = getelementptr inbounds i32, ptr %99, i64 0
  %101 = load i32, ptr %100, align 4, !tbaa !9
  %102 = load ptr, ptr %9, align 8, !tbaa !13
  %103 = getelementptr inbounds nuw %struct.SwsInternal, ptr %102, i32 0, i32 0
  %104 = getelementptr inbounds nuw %struct.SwsContext, ptr %103, i32 0, i32 8
  %105 = load i32, ptr %104, align 8, !tbaa !55
  call void %93(ptr noundef %94, i32 noundef %97, ptr noundef %98, i32 noundef %101, i32 noundef %105)
  %106 = load ptr, ptr %11, align 8, !tbaa !54
  %107 = getelementptr inbounds i32, ptr %106, i64 0
  %108 = load i32, ptr %107, align 4, !tbaa !9
  %109 = mul nsw i32 2, %108
  %110 = load ptr, ptr %17, align 8, !tbaa !4
  %111 = sext i32 %109 to i64
  %112 = getelementptr inbounds i8, ptr %110, i64 %111
  store ptr %112, ptr %17, align 8, !tbaa !4
  %113 = load ptr, ptr %15, align 8, !tbaa !54
  %114 = getelementptr inbounds i32, ptr %113, i64 0
  %115 = load i32, ptr %114, align 4, !tbaa !9
  %116 = mul nsw i32 2, %115
  %117 = load ptr, ptr %16, align 8, !tbaa !4
  %118 = sext i32 %116 to i64
  %119 = getelementptr inbounds i8, ptr %117, i64 %118
  store ptr %119, ptr %16, align 8, !tbaa !4
  br label %120

120:                                              ; preds = %92
  %121 = load i32, ptr %18, align 4, !tbaa !9
  %122 = add nsw i32 %121, 2
  store i32 %122, ptr %18, align 4, !tbaa !9
  br label %87, !llvm.loop !79

123:                                              ; preds = %87
  %124 = load i32, ptr %18, align 4, !tbaa !9
  %125 = add nsw i32 %124, 1
  %126 = load i32, ptr %13, align 4, !tbaa !9
  %127 = icmp eq i32 %125, %126
  br i1 %127, label %128, label %144

128:                                              ; preds = %123
  %129 = load ptr, ptr %19, align 8, !tbaa !56
  %130 = load ptr, ptr %17, align 8, !tbaa !4
  %131 = load ptr, ptr %11, align 8, !tbaa !54
  %132 = getelementptr inbounds i32, ptr %131, i64 0
  %133 = load i32, ptr %132, align 4, !tbaa !9
  %134 = sub nsw i32 0, %133
  %135 = load ptr, ptr %16, align 8, !tbaa !4
  %136 = load ptr, ptr %15, align 8, !tbaa !54
  %137 = getelementptr inbounds i32, ptr %136, i64 0
  %138 = load i32, ptr %137, align 4, !tbaa !9
  %139 = sub nsw i32 0, %138
  %140 = load ptr, ptr %9, align 8, !tbaa !13
  %141 = getelementptr inbounds nuw %struct.SwsInternal, ptr %140, i32 0, i32 0
  %142 = getelementptr inbounds nuw %struct.SwsContext, ptr %141, i32 0, i32 8
  %143 = load i32, ptr %142, align 8, !tbaa !55
  call void %129(ptr noundef %130, i32 noundef %134, ptr noundef %135, i32 noundef %139, i32 noundef %143)
  br label %163

144:                                              ; preds = %123
  %145 = load i32, ptr %18, align 4, !tbaa !9
  %146 = load i32, ptr %13, align 4, !tbaa !9
  %147 = icmp slt i32 %145, %146
  br i1 %147, label %148, label %162

148:                                              ; preds = %144
  %149 = load ptr, ptr %19, align 8, !tbaa !56
  %150 = load ptr, ptr %17, align 8, !tbaa !4
  %151 = load ptr, ptr %11, align 8, !tbaa !54
  %152 = getelementptr inbounds i32, ptr %151, i64 0
  %153 = load i32, ptr %152, align 4, !tbaa !9
  %154 = load ptr, ptr %16, align 8, !tbaa !4
  %155 = load ptr, ptr %15, align 8, !tbaa !54
  %156 = getelementptr inbounds i32, ptr %155, i64 0
  %157 = load i32, ptr %156, align 4, !tbaa !9
  %158 = load ptr, ptr %9, align 8, !tbaa !13
  %159 = getelementptr inbounds nuw %struct.SwsInternal, ptr %158, i32 0, i32 0
  %160 = getelementptr inbounds nuw %struct.SwsContext, ptr %159, i32 0, i32 8
  %161 = load i32, ptr %160, align 8, !tbaa !55
  call void %149(ptr noundef %150, i32 noundef %153, ptr noundef %154, i32 noundef %157, i32 noundef %161)
  br label %162

162:                                              ; preds = %148, %144
  br label %163

163:                                              ; preds = %162, %128
  %164 = load i32, ptr %13, align 4, !tbaa !9
  store i32 %164, ptr %8, align 4
  store i32 1, ptr %21, align 4
  br label %165

165:                                              ; preds = %163, %51
  call void @llvm.lifetime.end.p0(i64 8, ptr %20) #11
  call void @llvm.lifetime.end.p0(i64 8, ptr %19) #11
  call void @llvm.lifetime.end.p0(i64 4, ptr %18) #11
  call void @llvm.lifetime.end.p0(i64 8, ptr %17) #11
  call void @llvm.lifetime.end.p0(i64 8, ptr %16) #11
  %166 = load i32, ptr %8, align 4
  ret i32 %166
}