; Function Attrs: nounwind uwtable
define internal range(i32 0, -2147483648) i32 @bayer_to_rgb24_wrapper(ptr noundef readonly captures(none) %0, ptr noundef readonly captures(none) %1, ptr noundef readonly captures(none) %2, i32 noundef %3, i32 noundef %4, ptr noundef readonly captures(none) %5, ptr noundef readonly captures(none) %6) #3 {
  %8 = load ptr, ptr %5, align 8, !tbaa !49
  %9 = load i32, ptr %6, align 4, !tbaa !48
  %10 = mul nsw i32 %9, %3
  %11 = sext i32 %10 to i64
  %12 = getelementptr inbounds i8, ptr %8, i64 %11
  %13 = load ptr, ptr %1, align 8, !tbaa !49
  %14 = getelementptr inbounds nuw i8, ptr %0, i64 72
  %15 = load i32, ptr %14, align 8, !tbaa !6
  %switch.tableidx = add i32 %15, -139
  %16 = icmp ult i32 %switch.tableidx, 12
  br i1 %16, label %switch.lookup, label %60

switch.lookup:                                    ; preds = %7
  %17 = zext nneg i32 %switch.tableidx to i64
  %switch.gep = getelementptr inbounds nuw [12 x ptr], ptr @switch.table.bayer_to_rgb24_wrapper, i64 0, i64 %17
  %switch.load = load ptr, ptr %switch.gep, align 8
  %18 = zext nneg i32 %switch.tableidx to i64
  %switch.gep67 = getelementptr inbounds nuw [12 x ptr], ptr @switch.table.bayer_to_rgb24_wrapper.1, i64 0, i64 %18
  %switch.load68 = load ptr, ptr %switch.gep67, align 8
  %19 = icmp sgt i32 %4, 1
  br i1 %19, label %21, label %20

20:                                               ; preds = %switch.lookup
  tail call void (ptr, i32, ptr, ...) @av_log(ptr noundef null, i32 noundef 0, ptr noundef nonnull @.str.1, ptr noundef nonnull @.str.13, ptr noundef nonnull @.str.3, i32 noundef 1661) #13
  tail call void @abort() #14
  unreachable

21:                                               ; preds = %switch.lookup
  %22 = load i32, ptr %2, align 4, !tbaa !48
  %23 = getelementptr inbounds nuw i8, ptr %0, i64 56
  %24 = load i32, ptr %23, align 8, !tbaa !50
  tail call void %switch.load(ptr noundef %13, i32 noundef %22, ptr noundef %12, i32 noundef %9, i32 noundef %24) #13
  %25 = load i32, ptr %2, align 4, !tbaa !48
  %26 = shl nsw i32 %25, 1
  %27 = sext i32 %26 to i64
  %28 = getelementptr inbounds i8, ptr %13, i64 %27
  %29 = load i32, ptr %6, align 4, !tbaa !48
  %30 = shl nsw i32 %29, 1
  %31 = sext i32 %30 to i64
  %32 = getelementptr inbounds i8, ptr %12, i64 %31
  %33 = add nsw i32 %4, -2
  %34 = icmp samesign ugt i32 %4, 4
  br i1 %34, label %.lr.ph, label %._crit_edge

.lr.ph:                                           ; preds = %21, %.lr.ph
  %35 = phi i32 [ %42, %.lr.ph ], [ %29, %21 ]
  %36 = phi i32 [ %38, %.lr.ph ], [ %25, %21 ]
  %.04754 = phi i32 [ %46, %.lr.ph ], [ 2, %21 ]
  %.04853 = phi ptr [ %41, %.lr.ph ], [ %28, %21 ]
  %.04952 = phi ptr [ %45, %.lr.ph ], [ %32, %21 ]
  %37 = load i32, ptr %23, align 8, !tbaa !50
  tail call void %switch.load68(ptr noundef %.04853, i32 noundef %36, ptr noundef %.04952, i32 noundef %35, i32 noundef %37) #13
  %38 = load i32, ptr %2, align 4, !tbaa !48
  %39 = shl nsw i32 %38, 1
  %40 = sext i32 %39 to i64
  %41 = getelementptr inbounds i8, ptr %.04853, i64 %40
  %42 = load i32, ptr %6, align 4, !tbaa !48
  %43 = shl nsw i32 %42, 1
  %44 = sext i32 %43 to i64
  %45 = getelementptr inbounds i8, ptr %.04952, i64 %44
  %46 = add nuw nsw i32 %.04754, 2
  %47 = icmp slt i32 %46, %33
  br i1 %47, label %.lr.ph, label %._crit_edge, !llvm.loop !82

._crit_edge:                                      ; preds = %.lr.ph, %21
  %48 = phi i32 [ %29, %21 ], [ %42, %.lr.ph ]
  %49 = phi i32 [ %25, %21 ], [ %38, %.lr.ph ]
  %.049.lcssa = phi ptr [ %32, %21 ], [ %45, %.lr.ph ]
  %.048.lcssa = phi ptr [ %28, %21 ], [ %41, %.lr.ph ]
  %.047.lcssa = phi i32 [ 2, %21 ], [ %46, %.lr.ph ]
  %50 = or disjoint i32 %.047.lcssa, 1
  %51 = icmp eq i32 %50, %4
  br i1 %51, label %52, label %56

52:                                               ; preds = %._crit_edge
  %53 = sub nsw i32 0, %49
  %54 = sub nsw i32 0, %48
  %55 = load i32, ptr %23, align 8, !tbaa !50
  tail call void %switch.load(ptr noundef %.048.lcssa, i32 noundef %53, ptr noundef %.049.lcssa, i32 noundef %54, i32 noundef %55) #13
  br label %60

56:                                               ; preds = %._crit_edge
  %57 = icmp samesign ult i32 %.047.lcssa, %4
  br i1 %57, label %58, label %60

58:                                               ; preds = %56
  %59 = load i32, ptr %23, align 8, !tbaa !50
  tail call void %switch.load(ptr noundef %.048.lcssa, i32 noundef %49, ptr noundef %.049.lcssa, i32 noundef %48, i32 noundef %59) #13
  br label %60

60:                                               ; preds = %7, %52, %58, %56
  %.050 = phi i32 [ 0, %7 ], [ %4, %56 ], [ %4, %58 ], [ %4, %52 ]
  ret i32 %.050
}